target datalayout = "e-m:e-p270:32:32-p271:32:32-p272:64:64-i64:64-i128:128-f80:128-n8:16:32:64-S128"
target triple = "x86_64-pc-linux-gnu"

%struct.malloc_mutex_s = type { %union.anon }
%union.anon = type { %struct.anon }
%struct.anon = type { %struct.mutex_prof_data_t, %struct.atomic_b_t, %union.pthread_mutex_t }
%struct.mutex_prof_data_t = type { %struct.nstime_t, %struct.nstime_t, i64, i64, i32, %struct.atomic_u32_t, i64, ptr, i64 }
%struct.nstime_t = type { i64 }
%struct.atomic_u32_t = type { i32 }
%struct.atomic_b_t = type { i8 }
%union.pthread_mutex_t = type { %struct.__pthread_mutex_s }
%struct.__pthread_mutex_s = type { i32, i32, i32, i32, i32, i16, i16, %struct.__pthread_internal_list }
%struct.__pthread_internal_list = type { ptr, ptr }
%struct.tsd_s = type { i8, i8, i8, i64, i64, i64, i64, i64, i64, i64, i64, i64, i64, i64, i64, i64, ptr, i64, i64, i64, ptr, ptr, %struct.ticker_geom_s, i8, %struct.tsd_binshards_s, %struct.tsd_link_t, i8, %struct.peak_s, %struct.activity_callback_thunk_s, %struct.tcache_slow_s, %struct.rtree_ctx_s, %struct.atomic_u8_t, i64, i64, i64, i64, %struct.tcache_s, %struct.witness_tsd_s }
%struct.ticker_geom_s = type { i32, i32 }
%struct.tsd_binshards_s = type { [36 x i8] }
%struct.tsd_link_t = type { ptr, ptr }
%struct.peak_s = type { i64, i64 }
%struct.activity_callback_thunk_s = type { ptr, ptr }
%struct.tcache_slow_s = type { %struct.anon.3, %struct.cache_bin_array_descriptor_s, ptr, i32, %struct.nstime_t, i32, i32, i32, [36 x %struct.cache_bin_fill_ctl_s], [36 x i8], [36 x i8], ptr, ptr }
%struct.anon.3 = type { ptr, ptr }
%struct.cache_bin_array_descriptor_s = type { %struct.anon.4, ptr }
%struct.anon.4 = type { ptr, ptr }
%struct.cache_bin_fill_ctl_s = type { i8, i8 }
%struct.rtree_ctx_s = type { [16 x %struct.rtree_ctx_cache_elm_s], [8 x %struct.rtree_ctx_cache_elm_s] }
%struct.rtree_ctx_cache_elm_s = type { i64, ptr }
%struct.atomic_u8_t = type { i8 }
%struct.tcache_s = type { ptr, [73 x %struct.cache_bin_s] }
%struct.cache_bin_s = type { ptr, %struct.cache_bin_stats_s, i16, i16, i16, %struct.cache_bin_info_s }
%struct.cache_bin_stats_s = type { i64 }
%struct.cache_bin_info_s = type { i16 }
%struct.witness_tsd_s = type { %struct.witness_list_t, i8 }
%struct.witness_list_t = type { ptr }
%struct.ctl_stats_s = type { i64, i64, i64, i64, i64, i64, i64, i64, i64, %struct.background_thread_stats_s, [9 x %struct.mutex_prof_data_t] }
%struct.background_thread_stats_s = type { i64, i64, %struct.nstime_t, %struct.mutex_prof_data_t }
%struct.tsdn_s = type { %struct.tsd_s }

@ctl_mtx = internal global %struct.malloc_mutex_s zeroinitializer, align 8
@ctl_stats = internal global ptr null, align 8

; Function Attrs: alwaysinline nounwind uwtable
define internal ptr @tsd_witness_tsdp_get_unsafe(ptr noundef %0) #2 {
  %2 = alloca ptr, align 8
  store ptr %0, ptr %2, align 8, !tbaa !4
  %3 = load ptr, ptr %2, align 8, !tbaa !4
  %4 = getelementptr inbounds nuw %struct.tsd_s, ptr %3, i32 0, i32 37
  ret ptr %4
}

; Function Attrs: alwaysinline nounwind uwtable
define internal zeroext i8 @tsd_state_get(ptr noundef %0) #2 {
  %2 = alloca ptr, align 8
  store ptr %0, ptr %2, align 8, !tbaa !4
  %3 = load ptr, ptr %2, align 8, !tbaa !4
  %4 = getelementptr inbounds nuw %struct.tsd_s, ptr %3, i32 0, i32 31
  %5 = load i8, ptr %4, align 8, !tbaa !56
  ret i8 %5
}

; Function Attrs: alwaysinline nounwind uwtable
define internal i32 @atomic_enum_to_builtin(i32 noundef %0) #2 {
  %2 = alloca i32, align 4
  %3 = alloca i32, align 4
  store i32 %0, ptr %3, align 4, !tbaa !20
  %4 = load i32, ptr %3, align 4, !tbaa !20
  switch i32 %4, label %10 [
    i32 0, label %5
    i32 1, label %6
    i32 2, label %7
    i32 3, label %8
    i32 4, label %9
  ]

5:                                                ; preds = %1
  store i32 0, ptr %2, align 4
  br label %12

6:                                                ; preds = %1
  store i32 2, ptr %2, align 4
  br label %12

7:                                                ; preds = %1
  store i32 3, ptr %2, align 4
  br label %12

8:                                                ; preds = %1
  store i32 4, ptr %2, align 4
  br label %12

9:                                                ; preds = %1
  store i32 5, ptr %2, align 4
  br label %12

10:                                               ; preds = %1
  br label %11

11:                                               ; preds = %10
  unreachable

12:                                               ; preds = %5, %6, %7, %8, %9
  %13 = load i32, ptr %2, align 4
  ret i32 %13
}

; Function Attrs: alwaysinline nounwind uwtable
define internal ptr @tsd_witness_tsdp_get(ptr noundef %0) #2 {
  %2 = alloca ptr, align 8
  %3 = alloca i8, align 1
  store ptr %0, ptr %2, align 8, !tbaa !4
  call void @llvm.lifetime.start.p0(i64 1, ptr %3) #13
  %4 = load ptr, ptr %2, align 8, !tbaa !4
  %5 = call zeroext i8 @tsd_state_get(ptr noundef %4)
  store i8 %5, ptr %3, align 1, !tbaa !56
  br label %6

6:                                                ; preds = %1
  br label %7

7:                                                ; preds = %6
  br label %8

8:                                                ; preds = %7
  %9 = load ptr, ptr %2, align 8, !tbaa !4
  %10 = call ptr @tsd_witness_tsdp_get_unsafe(ptr noundef %9)
  call void @llvm.lifetime.end.p0(i64 1, ptr %3) #13
  ret ptr %10
}

; Function Attrs: alwaysinline nounwind uwtable
define internal ptr @tsdn_tsd(ptr noundef %0) #2 {
  %2 = alloca ptr, align 8
  store ptr %0, ptr %2, align 8, !tbaa !28
  br label %3

3:                                                ; preds = %1
  br label %4

4:                                                ; preds = %3
  %5 = load ptr, ptr %2, align 8, !tbaa !28
  %6 = getelementptr inbounds nuw %struct.tsdn_s, ptr %5, i32 0, i32 0
  ret ptr %6
}

; Function Attrs: alwaysinline nounwind uwtable
define internal zeroext i1 @tsdn_null(ptr noundef %0) #2 {
  %2 = alloca ptr, align 8
  store ptr %0, ptr %2, align 8, !tbaa !28
  %3 = load ptr, ptr %2, align 8, !tbaa !28
  %4 = icmp eq ptr %3, null
  ret i1 %4
}

; Function Attrs: alwaysinline nounwind uwtable
define internal void @atomic_store_b(ptr noundef %0, i1 noundef zeroext %1, i32 noundef %2) #2 {
  %4 = alloca ptr, align 8
  %5 = alloca i8, align 1
  %6 = alloca i32, align 4
  store ptr %0, ptr %4, align 8, !tbaa !11
  %7 = zext i1 %1 to i8
  store i8 %7, ptr %5, align 1, !tbaa !16
  store i32 %2, ptr %6, align 4, !tbaa !20
  %8 = load ptr, ptr %4, align 8, !tbaa !11
  %9 = getelementptr inbounds nuw %struct.atomic_b_t, ptr %8, i32 0, i32 0
  %10 = load i32, ptr %6, align 4, !tbaa !20
  %11 = call i32 @atomic_enum_to_builtin(i32 noundef %10)
  switch i32 %11, label %12 [
    i32 3, label %14
    i32 5, label %16
  ]

12:                                               ; preds = %3
  %13 = load i8, ptr %5, align 1
  store atomic i8 %13, ptr %9 monotonic, align 1
  br label %18

14:                                               ; preds = %3
  %15 = load i8, ptr %5, align 1
  store atomic i8 %15, ptr %9 release, align 1
  br label %18

16:                                               ; preds = %3
  %17 = load i8, ptr %5, align 1
  store atomic i8 %17, ptr %9 seq_cst, align 1
  br label %18

18:                                               ; preds = %16, %14, %12
  ret void
}

; Function Attrs: inlinehint nounwind uwtable
define internal void @witness_unlock(ptr noundef %0, ptr noundef %1) #4 {
  %3 = alloca ptr, align 8
  %4 = alloca ptr, align 8
  store ptr %0, ptr %3, align 8, !tbaa !111
  store ptr %1, ptr %4, align 8, !tbaa !113
  ret void
}

; Function Attrs: inlinehint nounwind uwtable
define internal void @witness_lock(ptr noundef %0, ptr noundef %1) #4 {
  %3 = alloca ptr, align 8
  %4 = alloca ptr, align 8
  store ptr %0, ptr %3, align 8, !tbaa !111
  store ptr %1, ptr %4, align 8, !tbaa !113
  ret void
}

; Function Attrs: inlinehint nounwind uwtable
define internal void @mutex_owner_stats_update(ptr noundef %0, ptr noundef %1) #4 {
  %3 = alloca ptr, align 8
  %4 = alloca ptr, align 8
  %5 = alloca ptr, align 8
  store ptr %0, ptr %3, align 8, !tbaa !28
  store ptr %1, ptr %4, align 8, !tbaa !59
  call void @llvm.lifetime.start.p0(i64 8, ptr %5) #13
  %6 = load ptr, ptr %4, align 8, !tbaa !59
  %7 = getelementptr inbounds nuw %struct.malloc_mutex_s, ptr %6, i32 0, i32 0
  %8 = getelementptr inbounds nuw %struct.anon, ptr %7, i32 0, i32 0
  store ptr %8, ptr %5, align 8, !tbaa !11
  %9 = load ptr, ptr %5, align 8, !tbaa !11
  %10 = getelementptr inbounds nuw %struct.mutex_prof_data_t, ptr %9, i32 0, i32 8
  %11 = load i64, ptr %10, align 8, !tbaa !115
  %12 = add i64 %11, 1
  store i64 %12, ptr %10, align 8, !tbaa !115
  %13 = load ptr, ptr %5, align 8, !tbaa !11
  %14 = getelementptr inbounds nuw %struct.mutex_prof_data_t, ptr %13, i32 0, i32 7
  %15 = load ptr, ptr %14, align 8, !tbaa !116
  %16 = load ptr, ptr %3, align 8, !tbaa !28
  %17 = icmp ne ptr %15, %16
  br i1 %17, label %18, label %26

18:                                               ; preds = %2
  %19 = load ptr, ptr %3, align 8, !tbaa !28
  %20 = load ptr, ptr %5, align 8, !tbaa !11
  %21 = getelementptr inbounds nuw %struct.mutex_prof_data_t, ptr %20, i32 0, i32 7
  store ptr %19, ptr %21, align 8, !tbaa !116
  %22 = load ptr, ptr %5, align 8, !tbaa !11
  %23 = getelementptr inbounds nuw %struct.mutex_prof_data_t, ptr %22, i32 0, i32 6
  %24 = load i64, ptr %23, align 8, !tbaa !117
  %25 = add i64 %24, 1
  store i64 %25, ptr %23, align 8, !tbaa !117
  br label %26

26:                                               ; preds = %18, %2
  call void @llvm.lifetime.end.p0(i64 8, ptr %5) #13
  ret void
}

; Function Attrs: inlinehint nounwind uwtable
define internal zeroext i1 @malloc_mutex_trylock_final(ptr noundef %0) #4 {
  %2 = alloca ptr, align 8
  %3 = alloca i8, align 1
  store ptr %0, ptr %2, align 8, !tbaa !59
  call void @llvm.lifetime.start.p0(i64 1, ptr %3) #13
  %4 = load ptr, ptr %2, align 8, !tbaa !59
  %5 = getelementptr inbounds nuw %struct.malloc_mutex_s, ptr %4, i32 0, i32 0
  %6 = getelementptr inbounds nuw %struct.anon, ptr %5, i32 0, i32 2
  %7 = call i32 @pthread_mutex_trylock(ptr noundef %6) #13
  %8 = icmp ne i32 %7, 0
  %9 = zext i1 %8 to i8
  store i8 %9, ptr %3, align 1, !tbaa !16
  %10 = load i8, ptr %3, align 1, !tbaa !16, !range !18, !noundef !19
  %11 = trunc i8 %10 to i1
  br i1 %11, label %16, label %12

12:                                               ; preds = %1
  %13 = load ptr, ptr %2, align 8, !tbaa !59
  %14 = getelementptr inbounds nuw %struct.malloc_mutex_s, ptr %13, i32 0, i32 0
  %15 = getelementptr inbounds nuw %struct.anon, ptr %14, i32 0, i32 1
  call void @atomic_store_b(ptr noundef %15, i1 noundef zeroext true, i32 noundef 0)
  br label %16

16:                                               ; preds = %12, %1
  %17 = load i8, ptr %3, align 1, !tbaa !16, !range !18, !noundef !19
  %18 = trunc i8 %17 to i1
  call void @llvm.lifetime.end.p0(i64 1, ptr %3) #13
  ret i1 %18
}

; Function Attrs: inlinehint nounwind uwtable
define internal void @witness_assert_not_owner(ptr noundef %0, ptr noundef %1) #4 {
  %3 = alloca ptr, align 8
  %4 = alloca ptr, align 8
  store ptr %0, ptr %3, align 8, !tbaa !111
  store ptr %1, ptr %4, align 8, !tbaa !113
  ret void
}

; Function Attrs: alwaysinline nounwind uwtable
define internal ptr @tsdn_witness_tsdp_get(ptr noundef %0) #2 {
  %2 = alloca ptr, align 8
  %3 = alloca ptr, align 8
  %4 = alloca ptr, align 8
  store ptr %0, ptr %3, align 8, !tbaa !28
  %5 = load ptr, ptr %3, align 8, !tbaa !28
  %6 = call zeroext i1 @tsdn_null(ptr noundef %5)
  br i1 %6, label %7, label %8

7:                                                ; preds = %1
  store ptr null, ptr %2, align 8
  br label %13

8:                                                ; preds = %1
  call void @llvm.lifetime.start.p0(i64 8, ptr %4) #13
  %9 = load ptr, ptr %3, align 8, !tbaa !28
  %10 = call ptr @tsdn_tsd(ptr noundef %9)
  store ptr %10, ptr %4, align 8, !tbaa !4
  %11 = load ptr, ptr %4, align 8, !tbaa !4
  %12 = call ptr @tsd_witness_tsdp_get(ptr noundef %11)
  store ptr %12, ptr %2, align 8
  call void @llvm.lifetime.end.p0(i64 8, ptr %4) #13
  br label %13

13:                                               ; preds = %8, %7
  %14 = load ptr, ptr %2, align 8
  ret ptr %14
}

; Function Attrs: inlinehint nounwind uwtable
define internal void @malloc_mutex_unlock(ptr noundef %0, ptr noundef %1) #4 {
  %3 = alloca ptr, align 8
  %4 = alloca ptr, align 8
  store ptr %0, ptr %3, align 8, !tbaa !28
  store ptr %1, ptr %4, align 8, !tbaa !59
  %5 = load ptr, ptr %3, align 8, !tbaa !28
  %6 = call ptr @tsdn_witness_tsdp_get(ptr noundef %5)
  %7 = load ptr, ptr %4, align 8, !tbaa !59
  %8 = getelementptr inbounds nuw %struct.malloc_mutex_s, ptr %7, i32 0, i32 0
  call void @witness_unlock(ptr noundef %6, ptr noundef %8)
  br label %9

9:                                                ; preds = %2
  br label %10

10:                                               ; preds = %9
  %11 = load ptr, ptr %4, align 8, !tbaa !59
  %12 = getelementptr inbounds nuw %struct.malloc_mutex_s, ptr %11, i32 0, i32 0
  %13 = getelementptr inbounds nuw %struct.anon, ptr %12, i32 0, i32 1
  call void @atomic_store_b(ptr noundef %13, i1 noundef zeroext false, i32 noundef 0)
  %14 = load ptr, ptr %4, align 8, !tbaa !59
  %15 = getelementptr inbounds nuw %struct.malloc_mutex_s, ptr %14, i32 0, i32 0
  %16 = getelementptr inbounds nuw %struct.anon, ptr %15, i32 0, i32 2
  %17 = call i32 @pthread_mutex_unlock(ptr noundef %16) #13
  ret void
}

; Function Attrs: inlinehint nounwind uwtable
define internal void @malloc_mutex_lock(ptr noundef %0, ptr noundef %1) #4 {
  %3 = alloca ptr, align 8
  %4 = alloca ptr, align 8
  store ptr %0, ptr %3, align 8, !tbaa !28
  store ptr %1, ptr %4, align 8, !tbaa !59
  %5 = load ptr, ptr %3, align 8, !tbaa !28
  %6 = call ptr @tsdn_witness_tsdp_get(ptr noundef %5)
  %7 = load ptr, ptr %4, align 8, !tbaa !59
  %8 = getelementptr inbounds nuw %struct.malloc_mutex_s, ptr %7, i32 0, i32 0
  call void @witness_assert_not_owner(ptr noundef %6, ptr noundef %8)
  %9 = load ptr, ptr %4, align 8, !tbaa !59
  %10 = call zeroext i1 @malloc_mutex_trylock_final(ptr noundef %9)
  br i1 %10, label %11, label %13

11:                                               ; preds = %2
  %12 = load ptr, ptr %4, align 8, !tbaa !59
  call void @je_malloc_mutex_lock_slow(ptr noundef %12)
  br label %13

13:                                               ; preds = %11, %2
  br label %14

14:                                               ; preds = %13
  br label %15

15:                                               ; preds = %14
  %16 = load ptr, ptr %3, align 8, !tbaa !28
  %17 = load ptr, ptr %4, align 8, !tbaa !59
  call void @mutex_owner_stats_update(ptr noundef %16, ptr noundef %17)
  %18 = load ptr, ptr %3, align 8, !tbaa !28
  %19 = call ptr @tsdn_witness_tsdp_get(ptr noundef %18)
  %20 = load ptr, ptr %4, align 8, !tbaa !59
  %21 = getelementptr inbounds nuw %struct.malloc_mutex_s, ptr %20, i32 0, i32 0
  call void @witness_lock(ptr noundef %19, ptr noundef %21)
  ret void
}

; Function Attrs: alwaysinline nounwind uwtable
define internal ptr @tsd_tsdn(ptr noundef %0) #2 {
  %2 = alloca ptr, align 8
  store ptr %0, ptr %2, align 8, !tbaa !4
  %3 = load ptr, ptr %2, align 8, !tbaa !4
  ret ptr %3
}

; Function Attrs: nounwind uwtable
define internal i32 @stats_mutexes_prof_stats_num_owner_switch_ctl(ptr noundef %0, ptr noundef %1, i64 noundef %2, ptr noundef %3, ptr noundef %4, ptr noundef %5, i64 noundef %6) #0 {
  %8 = alloca i32, align 4
  %9 = alloca ptr, align 8
  %10 = alloca ptr, align 8
  %11 = alloca i64, align 8
  %12 = alloca ptr, align 8
  %13 = alloca ptr, align 8
  %14 = alloca ptr, align 8
  %15 = alloca i64, align 8
  %16 = alloca i32, align 4
  %17 = alloca i64, align 8
  %18 = alloca i64, align 8
  %19 = alloca i32, align 4
  store ptr %0, ptr %9, align 8, !tbaa !4
  store ptr %1, ptr %10, align 8, !tbaa !12
  store i64 %2, ptr %11, align 8, !tbaa !14
  store ptr %3, ptr %12, align 8, !tbaa !11
  store ptr %4, ptr %13, align 8, !tbaa !12
  store ptr %5, ptr %14, align 8, !tbaa !11
  store i64 %6, ptr %15, align 8, !tbaa !14
  call void @llvm.lifetime.start.p0(i64 4, ptr %16) #13
  call void @llvm.lifetime.start.p0(i64 8, ptr %17) #13
  %20 = load ptr, ptr %9, align 8, !tbaa !4
  %21 = call ptr @tsd_tsdn(ptr noundef %20)
  call void @malloc_mutex_lock(ptr noundef %21, ptr noundef @ctl_mtx)
  br label %22

22:                                               ; preds = %7
  %23 = load ptr, ptr %14, align 8, !tbaa !11
  %24 = icmp ne ptr %23, null
  br i1 %24, label %28, label %25

25:                                               ; preds = %22
  %26 = load i64, ptr %15, align 8, !tbaa !14
  %27 = icmp ne i64 %26, 0
  br i1 %27, label %28, label %29

28:                                               ; preds = %25, %22
  store i32 1, ptr %16, align 4, !tbaa !20
  br label %68

29:                                               ; preds = %25
  br label %30

30:                                               ; preds = %29
  br label %31

31:                                               ; preds = %30
  %32 = load ptr, ptr @ctl_stats, align 8, !tbaa !32
  %33 = getelementptr inbounds nuw %struct.ctl_stats_s, ptr %32, i32 0, i32 10
  %34 = getelementptr inbounds [9 x %struct.mutex_prof_data_t], ptr %33, i64 0, i64 8
  %35 = getelementptr inbounds nuw %struct.mutex_prof_data_t, ptr %34, i32 0, i32 6
  %36 = load i64, ptr %35, align 8, !tbaa !117
  store i64 %36, ptr %17, align 8, !tbaa !14
  br label %37

37:                                               ; preds = %31
  %38 = load ptr, ptr %12, align 8, !tbaa !11
  %39 = icmp ne ptr %38, null
  br i1 %39, label %40, label %65

40:                                               ; preds = %37
  %41 = load ptr, ptr %13, align 8, !tbaa !12
  %42 = icmp ne ptr %41, null
  br i1 %42, label %43, label %65

43:                                               ; preds = %40
  %44 = load ptr, ptr %13, align 8, !tbaa !12
  %45 = load i64, ptr %44, align 8, !tbaa !14
  %46 = icmp ne i64 %45, 8
  br i1 %46, label %47, label %62

47:                                               ; preds = %43
  call void @llvm.lifetime.start.p0(i64 8, ptr %18) #13
  %48 = load ptr, ptr %13, align 8, !tbaa !12
  %49 = load i64, ptr %48, align 8, !tbaa !14
  %50 = icmp ule i64 8, %49
  br i1 %50, label %51, label %52

51:                                               ; preds = %47
  br label %55

52:                                               ; preds = %47
  %53 = load ptr, ptr %13, align 8, !tbaa !12
  %54 = load i64, ptr %53, align 8, !tbaa !14
  br label %55

55:                                               ; preds = %52, %51
  %56 = phi i64 [ 8, %51 ], [ %54, %52 ]
  store i64 %56, ptr %18, align 8, !tbaa !14
  %57 = load ptr, ptr %12, align 8, !tbaa !11
  %58 = load i64, ptr %18, align 8, !tbaa !14
  call void @llvm.memcpy.p0.p0.i64(ptr align 1 %57, ptr align 1 %17, i64 %58, i1 false)
  %59 = load i64, ptr %18, align 8, !tbaa !14
  %60 = load ptr, ptr %13, align 8, !tbaa !12
  store i64 %59, ptr %60, align 8, !tbaa !14
  store i32 22, ptr %16, align 4, !tbaa !20
  store i32 4, ptr %19, align 4
  call void @llvm.lifetime.end.p0(i64 8, ptr %18) #13
  %61 = load i32, ptr %19, align 4
  switch i32 %61, label %72 [
    i32 4, label %68
  ]

62:                                               ; preds = %43
  %63 = load i64, ptr %17, align 8, !tbaa !14
  %64 = load ptr, ptr %12, align 8, !tbaa !11
  store i64 %63, ptr %64, align 8, !tbaa !14
  br label %65

65:                                               ; preds = %62, %40, %37
  br label %66

66:                                               ; preds = %65
  br label %67

67:                                               ; preds = %66
  store i32 0, ptr %16, align 4, !tbaa !20
  br label %68

68:                                               ; preds = %67, %55, %28
  %69 = load ptr, ptr %9, align 8, !tbaa !4
  %70 = call ptr @tsd_tsdn(ptr noundef %69)
  call void @malloc_mutex_unlock(ptr noundef %70, ptr noundef @ctl_mtx)
  %71 = load i32, ptr %16, align 4, !tbaa !20
  store i32 %71, ptr %8, align 4
  store i32 1, ptr %19, align 4
  br label %72

72:                                               ; preds = %68, %55
  call void @llvm.lifetime.end.p0(i64 8, ptr %17) #13
  call void @llvm.lifetime.end.p0(i64 4, ptr %16) #13
  %73 = load i32, ptr %8, align 4
  ret i32 %73
}